; ModuleID = 'bench/jemalloc/original/prof_stats.ll'
source_filename = "bench/jemalloc/original/prof_stats.ll"
target datalayout = "e-m:e-p270:32:32-p271:32:32-p272:64:64-i64:64-i128:128-f80:128-n8:16:32:64-S128"
target triple = "x86_64-pc-linux-gnu"

%struct.malloc_mutex_s = type { %union.anon }
%union.anon = type { %struct.anon }
%struct.anon = type { %struct.mutex_prof_data_t, %struct.atomic_b_t, %union.pthread_mutex_t }
%struct.mutex_prof_data_t = type { %struct.nstime_t, %struct.nstime_t, i64, i64, i32, %struct.atomic_u32_t, i64, ptr, i64 }
%struct.nstime_t = type { i64 }
%struct.atomic_u32_t = type { i32 }
%struct.atomic_b_t = type { i8 }
%union.pthread_mutex_t = type { %struct.__pthread_mutex_s }
%struct.__pthread_mutex_s = type { i32, i32, i32, i32, i32, i16, i16, %struct.__pthread_internal_list }
%struct.__pthread_internal_list = type { ptr, ptr }

@je_opt_prof_stats = hidden local_unnamed_addr global i8 0, align 1
@je_prof_stats_mtx = hidden local_unnamed_addr global %struct.malloc_mutex_s zeroinitializer, align 8

; Function Attrs: mustprogress nofree norecurse noreturn nosync nounwind willreturn memory(none) uwtable
define hidden void @je_prof_stats_inc(ptr noundef readnone captures(none) %0, i32 noundef %1, i64 noundef %2) local_unnamed_addr #0 {
  unreachable
}

; Function Attrs: mustprogress nofree norecurse noreturn nosync nounwind willreturn memory(none) uwtable
define hidden void @je_prof_stats_dec(ptr noundef readnone captures(none) %0, i32 noundef %1, i64 noundef %2) local_unnamed_addr #0 {
  unreachable
}

; Function Attrs: mustprogress nofree norecurse noreturn nosync nounwind willreturn memory(none) uwtable
define hidden void @je_prof_stats_get_live(ptr noundef readnone captures(none) %0, i32 noundef %1, ptr noundef readnone captures(none) %2) local_unnamed_addr #0 {
  unreachable
}

; Function Attrs: mustprogress nofree norecurse noreturn nosync nounwind willreturn memory(none) uwtable
define hidden void @je_prof_stats_get_accum(ptr noundef readnone captures(none) %0, i32 noundef %1, ptr noundef readnone captures(none) %2) local_unnamed_addr #0 {
  unreachable
}


!llvm.module.flags = !{!0, !1, !2, !3}

!0 = !{i32 1, !"wchar_size", i32 4}
!1 = !{i32 8, !"PIC Level", i32 2}
!2 = !{i32 7, !"PIE Level", i32 2}
!3 = !{i32 7, !"uwtable", i32 2}
